target datalayout = "e-m:e-p270:32:32-p271:32:32-p272:64:64-i64:64-i128:128-f80:128-n8:16:32:64-S128"
target triple = "x86_64-pc-linux-gnu"

%"class.pxrInternal_v0_24__pxrReserved__::TfEnum" = type <{ ptr, i32, [4 x i8] }>

@.str.10 = private unnamed_addr constant [30 x i8] c"SdfPathExpression::Complement\00", align 1
@.str.11 = private unnamed_addr constant [32 x i8] c"SdfPathExpression::ImpliedUnion\00", align 1
@.str.12 = private unnamed_addr constant [25 x i8] c"SdfPathExpression::Union\00", align 1
@.str.13 = private unnamed_addr constant [32 x i8] c"SdfPathExpression::Intersection\00", align 1
@.str.14 = private unnamed_addr constant [30 x i8] c"SdfPathExpression::Difference\00", align 1
@.str.15 = private unnamed_addr constant [33 x i8] c"SdfPathExpression::ExpressionRef\00", align 1
@.str.16 = private unnamed_addr constant [27 x i8] c"SdfPathExpression::Pattern\00", align 1
@_ZTIN32pxrInternal_v0_24__pxrReserved__17SdfPathExpression2OpE = linkonce_odr constant { ptr, ptr } { ptr getelementptr inbounds (ptr, ptr @_ZTVN10__cxxabiv116__enum_type_infoE, i64 2), ptr @_ZTSN32pxrInternal_v0_24__pxrReserved__17SdfPathExpression2OpE }, comdat, align 8

; Function Attrs: mustprogress nounwind uwtable
define linkonce_odr noundef ptr @_ZN32pxrInternal_v0_24__pxrReserved__6TfEnum10_NameIdentEPKc(ptr noundef %0) #2 comdat align 2 {
  %2 = alloca ptr, align 8
  store ptr %0, ptr %2, align 8
  %3 = load ptr, ptr %2, align 8
  ret ptr %3
}

; Function Attrs: mustprogress nounwind uwtable
define linkonce_odr void @_ZN32pxrInternal_v0_24__pxrReserved__6TfEnumC2INS_17SdfPathExpression2OpEEET_PNSt9enable_ifIXsr3std7is_enumIS4_EE5valueEvE4typeE(ptr noundef nonnull align 8 dereferenceable(12) %0, i32 noundef %1, ptr noundef %2) unnamed_addr #2 comdat align 2 {
  %4 = alloca ptr, align 8
  %5 = alloca i32, align 4
  %6 = alloca ptr, align 8
  store ptr %0, ptr %4, align 8
  store i32 %1, ptr %5, align 4
  store ptr %2, ptr %6, align 8
  %7 = load ptr, ptr %4, align 8
  %8 = getelementptr inbounds nuw %"class.pxrInternal_v0_24__pxrReserved__::TfEnum", ptr %7, i32 0, i32 0
  store ptr @_ZTIN32pxrInternal_v0_24__pxrReserved__17SdfPathExpression2OpE, ptr %8, align 8
  %9 = getelementptr inbounds nuw %"class.pxrInternal_v0_24__pxrReserved__::TfEnum", ptr %7, i32 0, i32 1
  %10 = load i32, ptr %5, align 4
  store i32 %10, ptr %9, align 8
  ret void
}

; Function Attrs: mustprogress uwtable
define internal void @_ZN32pxrInternal_v0_24__pxrReserved__L22_Tf_RegistryFunction24EPNS_6TfEnumEPv(ptr noundef %0, ptr noundef %1) #0 {
  %3 = alloca ptr, align 8
  %4 = alloca ptr, align 8
  %5 = alloca %"class.pxrInternal_v0_24__pxrReserved__::TfEnum", align 8
  %6 = alloca %"class.pxrInternal_v0_24__pxrReserved__::TfEnum", align 8
  %7 = alloca %"class.pxrInternal_v0_24__pxrReserved__::TfEnum", align 8
  %8 = alloca %"class.pxrInternal_v0_24__pxrReserved__::TfEnum", align 8
  %9 = alloca %"class.pxrInternal_v0_24__pxrReserved__::TfEnum", align 8
  %10 = alloca %"class.pxrInternal_v0_24__pxrReserved__::TfEnum", align 8
  %11 = alloca %"class.pxrInternal_v0_24__pxrReserved__::TfEnum", align 8
  store ptr %0, ptr %3, align 8
  store ptr %1, ptr %4, align 8
  call void @_ZN32pxrInternal_v0_24__pxrReserved__6TfEnumC2INS_17SdfPathExpression2OpEEET_PNSt9enable_ifIXsr3std7is_enumIS4_EE5valueEvE4typeE(ptr noundef nonnull align 8 dereferenceable(12) %5, i32 noundef 0, ptr noundef null)
  %12 = call noundef ptr @_ZN32pxrInternal_v0_24__pxrReserved__6TfEnum10_NameIdentEPKc(ptr noundef null)
  %13 = getelementptr inbounds nuw { ptr, i32 }, ptr %5, i32 0, i32 0
  %14 = load ptr, ptr %13, align 8
  %15 = getelementptr inbounds nuw { ptr, i32 }, ptr %5, i32 0, i32 1
  %16 = load i32, ptr %15, align 8
  call void @_ZN32pxrInternal_v0_24__pxrReserved__6TfEnum8_AddNameES0_PKcS2_(ptr %14, i32 %16, ptr noundef @.str.10, ptr noundef %12)
  call void @_ZN32pxrInternal_v0_24__pxrReserved__6TfEnumC2INS_17SdfPathExpression2OpEEET_PNSt9enable_ifIXsr3std7is_enumIS4_EE5valueEvE4typeE(ptr noundef nonnull align 8 dereferenceable(12) %6, i32 noundef 1, ptr noundef null)
  %17 = call noundef ptr @_ZN32pxrInternal_v0_24__pxrReserved__6TfEnum10_NameIdentEPKc(ptr noundef null)
  %18 = getelementptr inbounds nuw { ptr, i32 }, ptr %6, i32 0, i32 0
  %19 = load ptr, ptr %18, align 8
  %20 = getelementptr inbounds nuw { ptr, i32 }, ptr %6, i32 0, i32 1
  %21 = load i32, ptr %20, align 8
  call void @_ZN32pxrInternal_v0_24__pxrReserved__6TfEnum8_AddNameES0_PKcS2_(ptr %19, i32 %21, ptr noundef @.str.11, ptr noundef %17)
  call void @_ZN32pxrInternal_v0_24__pxrReserved__6TfEnumC2INS_17SdfPathExpression2OpEEET_PNSt9enable_ifIXsr3std7is_enumIS4_EE5valueEvE4typeE(ptr noundef nonnull align 8 dereferenceable(12) %7, i32 noundef 2, ptr noundef null)
  %22 = call noundef ptr @_ZN32pxrInternal_v0_24__pxrReserved__6TfEnum10_NameIdentEPKc(ptr noundef null)
  %23 = getelementptr inbounds nuw { ptr, i32 }, ptr %7, i32 0, i32 0
  %24 = load ptr, ptr %23, align 8
  %25 = getelementptr inbounds nuw { ptr, i32 }, ptr %7, i32 0, i32 1
  %26 = load i32, ptr %25, align 8
  call void @_ZN32pxrInternal_v0_24__pxrReserved__6TfEnum8_AddNameES0_PKcS2_(ptr %24, i32 %26, ptr noundef @.str.12, ptr noundef %22)
  call void @_ZN32pxrInternal_v0_24__pxrReserved__6TfEnumC2INS_17SdfPathExpression2OpEEET_PNSt9enable_ifIXsr3std7is_enumIS4_EE5valueEvE4typeE(ptr noundef nonnull align 8 dereferenceable(12) %8, i32 noundef 3, ptr noundef null)
  %27 = call noundef ptr @_ZN32pxrInternal_v0_24__pxrReserved__6TfEnum10_NameIdentEPKc(ptr noundef null)
  %28 = getelementptr inbounds nuw { ptr, i32 }, ptr %8, i32 0, i32 0
  %29 = load ptr, ptr %28, align 8
  %30 = getelementptr inbounds nuw { ptr, i32 }, ptr %8, i32 0, i32 1
  %31 = load i32, ptr %30, align 8
  call void @_ZN32pxrInternal_v0_24__pxrReserved__6TfEnum8_AddNameES0_PKcS2_(ptr %29, i32 %31, ptr noundef @.str.13, ptr noundef %27)
  call void @_ZN32pxrInternal_v0_24__pxrReserved__6TfEnumC2INS_17SdfPathExpression2OpEEET_PNSt9enable_ifIXsr3std7is_enumIS4_EE5valueEvE4typeE(ptr noundef nonnull align 8 dereferenceable(12) %9, i32 noundef 4, ptr noundef null)
  %32 = call noundef ptr @_ZN32pxrInternal_v0_24__pxrReserved__6TfEnum10_NameIdentEPKc(ptr noundef null)
  %33 = getelementptr inbounds nuw { ptr, i32 }, ptr %9, i32 0, i32 0
  %34 = load ptr, ptr %33, align 8
  %35 = getelementptr inbounds nuw { ptr, i32 }, ptr %9, i32 0, i32 1
  %36 = load i32, ptr %35, align 8
  call void @_ZN32pxrInternal_v0_24__pxrReserved__6TfEnum8_AddNameES0_PKcS2_(ptr %34, i32 %36, ptr noundef @.str.14, ptr noundef %32)
  call void @_ZN32pxrInternal_v0_24__pxrReserved__6TfEnumC2INS_17SdfPathExpression2OpEEET_PNSt9enable_ifIXsr3std7is_enumIS4_EE5valueEvE4typeE(ptr noundef nonnull align 8 dereferenceable(12) %10, i32 noundef 5, ptr noundef null)
  %37 = call noundef ptr @_ZN32pxrInternal_v0_24__pxrReserved__6TfEnum10_NameIdentEPKc(ptr noundef null)
  %38 = getelementptr inbounds nuw { ptr, i32 }, ptr %10, i32 0, i32 0
  %39 = load ptr, ptr %38, align 8
  %40 = getelementptr inbounds nuw { ptr, i32 }, ptr %10, i32 0, i32 1
  %41 = load i32, ptr %40, align 8
  call void @_ZN32pxrInternal_v0_24__pxrReserved__6TfEnum8_AddNameES0_PKcS2_(ptr %39, i32 %41, ptr noundef @.str.15, ptr noundef %37)
  call void @_ZN32pxrInternal_v0_24__pxrReserved__6TfEnumC2INS_17SdfPathExpression2OpEEET_PNSt9enable_ifIXsr3std7is_enumIS4_EE5valueEvE4typeE(ptr noundef nonnull align 8 dereferenceable(12) %11, i32 noundef 6, ptr noundef null)
  %42 = call noundef ptr @_ZN32pxrInternal_v0_24__pxrReserved__6TfEnum10_NameIdentEPKc(ptr noundef null)
  %43 = getelementptr inbounds nuw { ptr, i32 }, ptr %11, i32 0, i32 0
  %44 = load ptr, ptr %43, align 8
  %45 = getelementptr inbounds nuw { ptr, i32 }, ptr %11, i32 0, i32 1
  %46 = load i32, ptr %45, align 8
  call void @_ZN32pxrInternal_v0_24__pxrReserved__6TfEnum8_AddNameES0_PKcS2_(ptr %44, i32 %46, ptr noundef @.str.16, ptr noundef %42)
  ret void
}