; Function Attrs: mustprogress uwtable
define internal void @_ZN32pxrInternal_v0_24__pxrReserved__L22_Tf_RegistryFunction24EPNS_6TfEnumEPv(ptr nocapture readnone %0, ptr nocapture readnone %1) #0 {
  tail call void @_ZN32pxrInternal_v0_24__pxrReserved__6TfEnum8_AddNameES0_PKcS2_(ptr nonnull @_ZTIN32pxrInternal_v0_24__pxrReserved__17SdfPathExpression2OpE, i32 0, ptr noundef nonnull @.str.10, ptr noundef null)
  tail call void @_ZN32pxrInternal_v0_24__pxrReserved__6TfEnum8_AddNameES0_PKcS2_(ptr nonnull @_ZTIN32pxrInternal_v0_24__pxrReserved__17SdfPathExpression2OpE, i32 1, ptr noundef nonnull @.str.11, ptr noundef null)
  tail call void @_ZN32pxrInternal_v0_24__pxrReserved__6TfEnum8_AddNameES0_PKcS2_(ptr nonnull @_ZTIN32pxrInternal_v0_24__pxrReserved__17SdfPathExpression2OpE, i32 2, ptr noundef nonnull @.str.12, ptr noundef null)
  tail call void @_ZN32pxrInternal_v0_24__pxrReserved__6TfEnum8_AddNameES0_PKcS2_(ptr nonnull @_ZTIN32pxrInternal_v0_24__pxrReserved__17SdfPathExpression2OpE, i32 3, ptr noundef nonnull @.str.13, ptr noundef null)
  tail call void @_ZN32pxrInternal_v0_24__pxrReserved__6TfEnum8_AddNameES0_PKcS2_(ptr nonnull @_ZTIN32pxrInternal_v0_24__pxrReserved__17SdfPathExpression2OpE, i32 4, ptr noundef nonnull @.str.14, ptr noundef null)
  tail call void @_ZN32pxrInternal_v0_24__pxrReserved__6TfEnum8_AddNameES0_PKcS2_(ptr nonnull @_ZTIN32pxrInternal_v0_24__pxrReserved__17SdfPathExpression2OpE, i32 5, ptr noundef nonnull @.str.15, ptr noundef null)
  tail call void @_ZN32pxrInternal_v0_24__pxrReserved__6TfEnum8_AddNameES0_PKcS2_(ptr nonnull @_ZTIN32pxrInternal_v0_24__pxrReserved__17SdfPathExpression2OpE, i32 6, ptr noundef nonnull @.str.16, ptr noundef null)
  ret void
}